target datalayout = "e-m:e-p270:32:32-p271:32:32-p272:64:64-i64:64-i128:128-f80:128-n8:16:32:64-S128"
target triple = "x86_64-pc-linux-gnu"

%struct.expert_field = type { i32, i32 }
%struct._packet_info = type { ptr, ptr, i32, i32, %struct.nstime_t, %struct.nstime_t, %struct.nstime_t, i8, ptr, ptr, ptr, ptr, %struct._address, %struct._address, %struct._address, %struct._address, %struct._address, %struct._address, i32, ptr, i8, [3 x i8], %struct.anon, i32, i32, i32, i32, ptr, i8, ptr, ptr, i16, i16, i32, i32, i16, i32, i32, ptr, ptr, ptr, i8, i8, i16, i16, i16, i32, i16, i16, ptr, ptr, ptr, ptr, ptr, i32, i32 }
%struct.nstime_t = type { i64, i32 }
%struct._address = type { i32, i32, ptr, ptr }
%struct.anon = type { i8, [3 x i8] }

@hf_chld_mode = internal global i32 0, align 4
@hf_chld_mode_1x = internal global i32 0, align 4
@hf_chld_mode_2x = internal global i32 0, align 4
@hf_chld_supported_modes = internal global i32 0, align 4
@ei_chld_mode = internal global %struct.expert_field zeroinitializer, align 4

; Function Attrs: alwaysinline nounwind
define internal ptr @memcpy.inline(ptr noalias %0, ptr noalias %1, i64 %2) #9 {
  %4 = alloca ptr, align 8
  %5 = alloca ptr, align 8
  %6 = alloca i64, align 8
  store ptr %0, ptr %4, align 8
  store ptr %1, ptr %5, align 8
  store i64 %2, ptr %6, align 8
  %7 = load ptr, ptr %4, align 8
  %8 = load ptr, ptr %5, align 8
  %9 = load i64, ptr %6, align 8
  %10 = load ptr, ptr %4, align 8
  %11 = call i64 @llvm.objectsize.i64.p0(ptr %10, i1 false, i1 true, i1 true)
  %12 = call ptr @__memcpy_chk(ptr noundef %7, ptr noundef %8, i64 noundef %9, i64 noundef %11) #12
  ret ptr %12
}

; Function Attrs: null_pointer_is_valid sspstrong uwtable
define internal i32 @get_uint_parameter(ptr noundef %0, ptr noundef %1, i32 noundef %2) #0 {
  %4 = alloca ptr, align 8
  %5 = alloca ptr, align 8
  %6 = alloca i32, align 4
  %7 = alloca i32, align 4
  %8 = alloca ptr, align 8
  store ptr %0, ptr %4, align 8
  store ptr %1, ptr %5, align 8
  store i32 %2, ptr %6, align 4
  call void @llvm.lifetime.start.p0(i64 4, ptr %7) #12
  call void @llvm.lifetime.start.p0(i64 8, ptr %8) #12
  %9 = load ptr, ptr %4, align 8
  %10 = load i32, ptr %6, align 4
  %11 = add i32 %10, 1
  %12 = sext i32 %11 to i64
  %13 = call noalias ptr @wmem_alloc(ptr noundef %9, i64 noundef %12) #13
  store ptr %13, ptr %8, align 8
  %14 = load ptr, ptr %8, align 8
  %15 = load ptr, ptr %5, align 8
  %16 = load i32, ptr %6, align 4
  %17 = sext i32 %16 to i64
  %18 = call ptr @memcpy.inline(ptr noundef %14, ptr noundef %15, i64 noundef %17) #12
  %19 = load ptr, ptr %8, align 8
  %20 = load i32, ptr %6, align 4
  %21 = sext i32 %20 to i64
  %22 = getelementptr i8, ptr %19, i64 %21
  store i8 0, ptr %22, align 1
  %23 = load ptr, ptr %8, align 8
  %24 = call i64 @g_ascii_strtoull(ptr noundef %23, ptr noundef null, i32 noundef 10)
  %25 = trunc i64 %24 to i32
  store i32 %25, ptr %7, align 4
  %26 = load i32, ptr %7, align 4
  call void @llvm.lifetime.end.p0(i64 8, ptr %8) #12
  call void @llvm.lifetime.end.p0(i64 4, ptr %7) #12
  ret i32 %26
}

; Function Attrs: nounwind null_pointer_is_valid sspstrong uwtable
define internal zeroext i1 @check_chld(i32 noundef %0, i16 noundef zeroext %1) #4 {
  %3 = alloca i1, align 1
  %4 = alloca i32, align 4
  %5 = alloca i16, align 2
  store i32 %0, ptr %4, align 4
  store i16 %1, ptr %5, align 2
  %6 = load i32, ptr %4, align 4
  %7 = icmp eq i32 %6, 2
  br i1 %7, label %8, label %17

8:                                                ; preds = %2
  %9 = load i16, ptr %5, align 2
  %10 = zext i16 %9 to i32
  %11 = icmp eq i32 %10, 61
  br i1 %11, label %16, label %12

12:                                               ; preds = %8
  %13 = load i16, ptr %5, align 2
  %14 = zext i16 %13 to i32
  %15 = icmp eq i32 %14, 15679
  br i1 %15, label %16, label %17

16:                                               ; preds = %12, %8
  store i1 true, ptr %3, align 1
  br label %26

17:                                               ; preds = %12, %2
  %18 = load i32, ptr %4, align 4
  %19 = icmp eq i32 %18, 1
  br i1 %19, label %20, label %25

20:                                               ; preds = %17
  %21 = load i16, ptr %5, align 2
  %22 = zext i16 %21 to i32
  %23 = icmp eq i32 %22, 58
  br i1 %23, label %24, label %25

24:                                               ; preds = %20
  store i1 true, ptr %3, align 1
  br label %26

25:                                               ; preds = %20, %17
  store i1 false, ptr %3, align 1
  br label %26

26:                                               ; preds = %25, %24, %16
  %27 = load i1, ptr %3, align 1
  ret i1 %27
}

; Function Attrs: null_pointer_is_valid sspstrong uwtable
define internal zeroext i1 @dissect_chld_parameter(ptr noundef %0, ptr noundef %1, ptr noundef %2, i32 noundef %3, i32 noundef %4, i16 noundef zeroext %5, ptr noundef %6, i32 noundef %7, i32 noundef %8, ptr noundef %9, ptr noundef %10) #0 {
  %12 = alloca i1, align 1
  %13 = alloca ptr, align 8
  %14 = alloca ptr, align 8
  %15 = alloca ptr, align 8
  %16 = alloca i32, align 4
  %17 = alloca i32, align 4
  %18 = alloca i16, align 2
  %19 = alloca ptr, align 8
  %20 = alloca i32, align 4
  %21 = alloca i32, align 4
  %22 = alloca ptr, align 8
  %23 = alloca ptr, align 8
  %24 = alloca i32, align 4
  %25 = alloca i32, align 4
  store ptr %0, ptr %13, align 8
  store ptr %1, ptr %14, align 8
  store ptr %2, ptr %15, align 8
  store i32 %3, ptr %16, align 4
  store i32 %4, ptr %17, align 4
  store i16 %5, ptr %18, align 2
  store ptr %6, ptr %19, align 8
  store i32 %7, ptr %20, align 4
  store i32 %8, ptr %21, align 4
  store ptr %9, ptr %22, align 8
  store ptr %10, ptr %23, align 8
  call void @llvm.lifetime.start.p0(i64 4, ptr %24) #12
  %26 = load i32, ptr %17, align 4
  %27 = load i16, ptr %18, align 2
  %28 = call zeroext i1 @check_chld(i32 noundef %26, i16 noundef zeroext %27)
  br i1 %28, label %30, label %29

29:                                               ; preds = %11
  store i1 false, ptr %12, align 1
  store i32 1, ptr %25, align 4
  br label %110

30:                                               ; preds = %11
  %31 = load i32, ptr %17, align 4
  %32 = icmp eq i32 %31, 2
  br i1 %32, label %33, label %103

33:                                               ; preds = %30
  %34 = load i16, ptr %18, align 2
  %35 = zext i16 %34 to i32
  %36 = icmp eq i32 %35, 61
  br i1 %36, label %37, label %103

37:                                               ; preds = %33
  %38 = load i32, ptr %20, align 4
  %39 = icmp eq i32 %38, 0
  br i1 %39, label %40, label %103

40:                                               ; preds = %37
  %41 = load ptr, ptr %14, align 8
  %42 = getelementptr inbounds nuw %struct._packet_info, ptr %41, i32 0, i32 51
  %43 = load ptr, ptr %42, align 8
  %44 = load ptr, ptr %19, align 8
  %45 = call i32 @get_uint_parameter(ptr noundef %43, ptr noundef %44, i32 noundef 1)
  store i32 %45, ptr %24, align 4
  %46 = load i32, ptr %21, align 4
  %47 = icmp sge i32 %46, 2
  br i1 %47, label %48, label %95

48:                                               ; preds = %40
  %49 = load ptr, ptr %13, align 8
  %50 = load i32, ptr %16, align 4
  %51 = add i32 %50, 1
  %52 = call zeroext i8 @tvb_get_uint8(ptr noundef %49, i32 noundef %51)
  %53 = zext i8 %52 to i32
  %54 = icmp eq i32 %53, 120
  br i1 %54, label %55, label %77

55:                                               ; preds = %48
  %56 = load i32, ptr %24, align 4
  %57 = icmp eq i32 %56, 1
  br i1 %57, label %58, label %65

58:                                               ; preds = %55
  %59 = load ptr, ptr %15, align 8
  %60 = load i32, ptr @hf_chld_mode_1x, align 4
  %61 = load ptr, ptr %13, align 8
  %62 = load i32, ptr %16, align 4
  %63 = load i32, ptr %21, align 4
  %64 = call ptr @proto_tree_add_item(ptr noundef %59, i32 noundef %60, ptr noundef %61, i32 noundef %62, i32 noundef %63, i32 noundef 0)
  br label %76

65:                                               ; preds = %55
  %66 = load i32, ptr %24, align 4
  %67 = icmp eq i32 %66, 2
  br i1 %67, label %68, label %75

68:                                               ; preds = %65
  %69 = load ptr, ptr %15, align 8
  %70 = load i32, ptr @hf_chld_mode_2x, align 4
  %71 = load ptr, ptr %13, align 8
  %72 = load i32, ptr %16, align 4
  %73 = load i32, ptr %21, align 4
  %74 = call ptr @proto_tree_add_item(ptr noundef %69, i32 noundef %70, ptr noundef %71, i32 noundef %72, i32 noundef %73, i32 noundef 0)
  br label %75

75:                                               ; preds = %68, %65
  br label %76

76:                                               ; preds = %75, %58
  br label %77

77:                                               ; preds = %76, %48
  %78 = load ptr, ptr %13, align 8
  %79 = load i32, ptr %16, align 4
  %80 = add i32 %79, 1
  %81 = call zeroext i8 @tvb_get_uint8(ptr noundef %78, i32 noundef %80)
  %82 = zext i8 %81 to i32
  %83 = icmp ne i32 %82, 120
  br i1 %83, label %87, label %84

84:                                               ; preds = %77
  %85 = load i32, ptr %24, align 4
  %86 = icmp ugt i32 %85, 4
  br i1 %86, label %87, label %94

87:                                               ; preds = %84, %77
  %88 = load ptr, ptr %15, align 8
  %89 = load ptr, ptr %14, align 8
  %90 = load ptr, ptr %13, align 8
  %91 = load i32, ptr %16, align 4
  %92 = load i32, ptr %21, align 4
  %93 = call ptr @proto_tree_add_expert(ptr noundef %88, ptr noundef %89, ptr noundef @ei_chld_mode, ptr noundef %90, i32 noundef %91, i32 noundef %92)
  br label %94

94:                                               ; preds = %87, %84
  br label %95

95:                                               ; preds = %94, %40
  %96 = load ptr, ptr %15, align 8
  %97 = load i32, ptr @hf_chld_mode, align 4
  %98 = load ptr, ptr %13, align 8
  %99 = load i32, ptr %16, align 4
  %100 = load i32, ptr %21, align 4
  %101 = load i32, ptr %24, align 4
  %102 = call ptr @proto_tree_add_uint(ptr noundef %96, i32 noundef %97, ptr noundef %98, i32 noundef %99, i32 noundef %100, i32 noundef %101)
  store i1 true, ptr %12, align 1
  store i32 1, ptr %25, align 4
  br label %110

103:                                              ; preds = %37, %33, %30
  %104 = load ptr, ptr %15, align 8
  %105 = load i32, ptr @hf_chld_supported_modes, align 4
  %106 = load ptr, ptr %13, align 8
  %107 = load i32, ptr %16, align 4
  %108 = load i32, ptr %21, align 4
  %109 = call ptr @proto_tree_add_item(ptr noundef %104, i32 noundef %105, ptr noundef %106, i32 noundef %107, i32 noundef %108, i32 noundef 0)
  store i1 true, ptr %12, align 1
  store i32 1, ptr %25, align 4
  br label %110

110:                                              ; preds = %103, %95, %29
  call void @llvm.lifetime.end.p0(i64 4, ptr %24) #12
  %111 = load i1, ptr %12, align 1
  ret i1 %111
}