; Function Attrs: null_pointer_is_valid sspstrong uwtable
define internal noundef zeroext i1 @dissect_chld_parameter(ptr noundef %0, ptr noundef %1, ptr noundef %2, i32 noundef %3, i32 noundef %4, i16 noundef zeroext %5, ptr noundef readonly captures(none) %6, i32 noundef %7, i32 noundef %8, ptr readnone captures(none) %9, ptr readnone captures(none) %10) #0 {
  %12 = icmp eq i32 %4, 2
  br i1 %12, label %13, label %check_chld.exit

13:                                               ; preds = %11
  switch i16 %5, label %check_chld.exit.thread48 [
    i16 15679, label %16
    i16 61, label %16
  ]

check_chld.exit:                                  ; preds = %11
  %14 = icmp eq i32 %4, 1
  %15 = icmp eq i16 %5, 58
  %or.cond5.i = and i1 %14, %15
  br i1 %or.cond5.i, label %.thread, label %check_chld.exit.thread48

16:                                               ; preds = %13, %13
  %17 = icmp eq i16 %5, 61
  %18 = icmp eq i32 %7, 0
  %or.cond4 = and i1 %17, %18
  br i1 %or.cond4, label %19, label %.thread

19:                                               ; preds = %16
  %20 = getelementptr inbounds nuw i8, ptr %1, i64 408
  %21 = load ptr, ptr %20, align 8
  %22 = tail call noalias dereferenceable_or_null(2) ptr @wmem_alloc(ptr noundef %21, i64 noundef 2) #12
  %23 = load i8, ptr %6, align 1
  store i8 %23, ptr %22, align 1
  %24 = getelementptr i8, ptr %22, i64 1
  store i8 0, ptr %24, align 1
  %25 = tail call i64 @g_ascii_strtoull(ptr noundef %22, ptr noundef null, i32 noundef 10)
  %26 = trunc i64 %25 to i32
  %27 = icmp sgt i32 %8, 1
  br i1 %27, label %28, label %42

28:                                               ; preds = %19
  %29 = add i32 %3, 1
  %30 = tail call zeroext i8 @tvb_get_uint8(ptr noundef %0, i32 noundef %29)
  %31 = icmp eq i8 %30, 120
  br i1 %31, label %32, label %36

32:                                               ; preds = %28
  switch i32 %26, label %36 [
    i32 1, label %.sink.split
    i32 2, label %33
  ]

33:                                               ; preds = %32
  br label %.sink.split

.sink.split:                                      ; preds = %32, %33
  %hf_chld_mode_1x.sink = phi ptr [ @hf_chld_mode_2x, %33 ], [ @hf_chld_mode_1x, %32 ]
  %34 = load i32, ptr %hf_chld_mode_1x.sink, align 4
  %35 = tail call ptr @proto_tree_add_item(ptr noundef %2, i32 noundef %34, ptr noundef %0, i32 noundef %3, i32 noundef %8, i32 noundef 0)
  br label %36

36:                                               ; preds = %.sink.split, %32, %28
  %37 = tail call zeroext i8 @tvb_get_uint8(ptr noundef %0, i32 noundef %29)
  %38 = icmp ne i8 %37, 120
  %39 = icmp ugt i32 %26, 4
  %or.cond6 = select i1 %38, i1 true, i1 %39
  br i1 %or.cond6, label %40, label %42

40:                                               ; preds = %36
  %41 = tail call ptr @proto_tree_add_expert(ptr noundef %2, ptr noundef %1, ptr noundef nonnull @ei_chld_mode, ptr noundef %0, i32 noundef %3, i32 noundef %8)
  br label %42

42:                                               ; preds = %40, %36, %19
  %43 = load i32, ptr @hf_chld_mode, align 4
  %44 = tail call ptr @proto_tree_add_uint(ptr noundef %2, i32 noundef %43, ptr noundef %0, i32 noundef %3, i32 noundef %8, i32 noundef %26)
  br label %check_chld.exit.thread48

.thread:                                          ; preds = %check_chld.exit, %16
  %45 = load i32, ptr @hf_chld_supported_modes, align 4
  %46 = tail call ptr @proto_tree_add_item(ptr noundef %2, i32 noundef %45, ptr noundef %0, i32 noundef %3, i32 noundef %8, i32 noundef 0)
  br label %check_chld.exit.thread48

check_chld.exit.thread48:                         ; preds = %13, %check_chld.exit, %.thread, %42
  %.0.i46 = phi i1 [ false, %check_chld.exit ], [ true, %.thread ], [ true, %42 ], [ false, %13 ]
  ret i1 %.0.i46
}